; ModuleID = '4/1760.c'
source_filename = "4/1760.c"
target datalayout = "e-m:e-p270:32:32-p271:32:32-p272:64:64-i64:64-f80:128-n8:16:32:64-S128"
target triple = "x86_64-pc-linux-gnu"

@.str = private unnamed_addr constant [5 x i8] c"%d%d\00", align 1
@.str.1 = private unnamed_addr constant [3 x i8] c"%d\00", align 1
@.str.2 = private unnamed_addr constant [4 x i8] c"%d\0A\00", align 1

; Function Attrs: noinline nounwind uwtable
define dso_local void @main() #0 {
  %1 = alloca i32*, align 8
  %2 = alloca i32, align 4
  %3 = alloca i32, align 4
  %4 = alloca i32*, align 8
  %5 = alloca i32, align 4
  %6 = alloca i32, align 4
  %7 = call i32 (i8*, ...) @__isoc99_scanf(i8* getelementptr inbounds ([5 x i8], [5 x i8]* @.str, i64 0, i64 0), i32* %2, i32* %3)
  %8 = load i32, i32* %2, align 4
  %9 = load i32, i32* %3, align 4
  %10 = mul nsw i32 %8, %9
  %11 = sext i32 %10 to i64
  %12 = mul i64 %11, 4
  %13 = call noalias i8* @malloc(i64 %12) #3
  %14 = bitcast i8* %13 to i32*
  store i32* %14, i32** %1, align 8
  %15 = load i32*, i32** %1, align 8
  store i32* %15, i32** %4, align 8
  br label %16

16:                                               ; preds = %28, %0
  %17 = load i32*, i32** %4, align 8
  %18 = load i32*, i32** %1, align 8
  %19 = load i32, i32* %2, align 4
  %20 = load i32, i32* %3, align 4
  %21 = mul nsw i32 %19, %20
  %22 = sext i32 %21 to i64
  %23 = getelementptr inbounds i32, i32* %18, i64 %22
  %24 = icmp ult i32* %17, %23
  br i1 %24, label %25, label %31

25:                                               ; preds = %16
  %26 = load i32*, i32** %4, align 8
  %27 = call i32 (i8*, ...) @__isoc99_scanf(i8* getelementptr inbounds ([3 x i8], [3 x i8]* @.str.1, i64 0, i64 0), i32* %26)
  br label %28

28:                                               ; preds = %25
  %29 = load i32*, i32** %4, align 8
  %30 = getelementptr inbounds i32, i32* %29, i32 1
  store i32* %30, i32** %4, align 8
  br label %16

31:                                               ; preds = %16
  store i32 0, i32* %6, align 4
  br label %32

32:                                               ; preds = %110, %31
  %33 = load i32, i32* %6, align 4
  %34 = load i32, i32* %2, align 4
  %35 = load i32, i32* %3, align 4
  %36 = add nsw i32 %34, %35
  %37 = sub nsw i32 %36, 1
  %38 = icmp slt i32 %33, %37
  br i1 %38, label %39, label %113

39:                                               ; preds = %32
  %40 = load i32, i32* %6, align 4
  %41 = load i32, i32* %3, align 4
  %42 = icmp slt i32 %40, %41
  br i1 %42, label %43, label %74

43:                                               ; preds = %39
  store i32 0, i32* %5, align 4
  br label %44

44:                                               ; preds = %70, %43
  %45 = load i32, i32* %5, align 4
  %46 = load i32, i32* %6, align 4
  %47 = icmp sle i32 %45, %46
  br i1 %47, label %48, label %52

48:                                               ; preds = %44
  %49 = load i32, i32* %5, align 4
  %50 = load i32, i32* %2, align 4
  %51 = icmp slt i32 %49, %50
  br label %52

52:                                               ; preds = %48, %44
  %53 = phi i1 [ false, %44 ], [ %51, %48 ]
  br i1 %53, label %54, label %73

54:                                               ; preds = %52
  %55 = load i32*, i32** %1, align 8
  %56 = load i32, i32* %5, align 4
  %57 = load i32, i32* %3, align 4
  %58 = mul nsw i32 %56, %57
  %59 = sext i32 %58 to i64
  %60 = getelementptr inbounds i32, i32* %55, i64 %59
  %61 = load i32, i32* %6, align 4
  %62 = sext i32 %61 to i64
  %63 = getelementptr inbounds i32, i32* %60, i64 %62
  %64 = load i32, i32* %5, align 4
  %65 = sext i32 %64 to i64
  %66 = sub i64 0, %65
  %67 = getelementptr inbounds i32, i32* %63, i64 %66
  %68 = load i32, i32* %67, align 4
  %69 = call i32 (i8*, ...) @printf(i8* getelementptr inbounds ([4 x i8], [4 x i8]* @.str.2, i64 0, i64 0), i32 %68)
  br label %70

70:                                               ; preds = %54
  %71 = load i32, i32* %5, align 4
  %72 = add nsw i32 %71, 1
  store i32 %72, i32* %5, align 4
  br label %44

73:                                               ; preds = %52
  br label %109

74:                                               ; preds = %39
  %75 = load i32, i32* %6, align 4
  %76 = load i32, i32* %3, align 4
  %77 = sub nsw i32 %75, %76
  %78 = add nsw i32 %77, 1
  store i32 %78, i32* %5, align 4
  br label %79

79:                                               ; preds = %105, %74
  %80 = load i32, i32* %5, align 4
  %81 = load i32, i32* %2, align 4
  %82 = icmp slt i32 %80, %81
  br i1 %82, label %83, label %87

83:                                               ; preds = %79
  %84 = load i32, i32* %5, align 4
  %85 = load i32, i32* %6, align 4
  %86 = icmp sle i32 %84, %85
  br label %87

87:                                               ; preds = %83, %79
  %88 = phi i1 [ false, %79 ], [ %86, %83 ]
  br i1 %88, label %89, label %108

89:                                               ; preds = %87
  %90 = load i32*, i32** %1, align 8
  %91 = load i32, i32* %5, align 4
  %92 = load i32, i32* %3, align 4
  %93 = mul nsw i32 %91, %92
  %94 = sext i32 %93 to i64
  %95 = getelementptr inbounds i32, i32* %90, i64 %94
  %96 = load i32, i32* %6, align 4
  %97 = sext i32 %96 to i64
  %98 = getelementptr inbounds i32, i32* %95, i64 %97
  %99 = load i32, i32* %5, align 4
  %100 = sext i32 %99 to i64
  %101 = sub i64 0, %100
  %102 = getelementptr inbounds i32, i32* %98, i64 %101
  %103 = load i32, i32* %102, align 4
  %104 = call i32 (i8*, ...) @printf(i8* getelementptr inbounds ([4 x i8], [4 x i8]* @.str.2, i64 0, i64 0), i32 %103)
  br label %105

105:                                              ; preds = %89
  %106 = load i32, i32* %5, align 4
  %107 = add nsw i32 %106, 1
  store i32 %107, i32* %5, align 4
  br label %79

108:                                              ; preds = %87
  br label %109

109:                                              ; preds = %108, %73
  br label %110

110:                                              ; preds = %109
  %111 = load i32, i32* %6, align 4
  %112 = add nsw i32 %111, 1
  store i32 %112, i32* %6, align 4
  br label %32

113:                                              ; preds = %32
  ret void
}

declare dso_local i32 @__isoc99_scanf(i8*, ...) #1

; Function Attrs: nounwind
declare dso_local noalias i8* @malloc(i64) #2

declare dso_local i32 @printf(i8*, ...) #1


!llvm.module.flags = !{!0}
!llvm.ident = !{!1}

!0 = !{i32 1, !"wchar_size", i32 4}
!1 = !{!"clang version 10.0.0-4ubuntu1 "}
